; ModuleID = '28/736.c'
source_filename = "28/736.c"
target datalayout = "e-m:e-p270:32:32-p271:32:32-p272:64:64-i64:64-f80:128-n8:16:32:64-S128"
target triple = "x86_64-pc-linux-gnu"

@.str = private unnamed_addr constant [3 x i8] c"%d\00", align 1
@.str.1 = private unnamed_addr constant [4 x i8] c"%d,\00", align 1

; Function Attrs: noinline nounwind uwtable
define dso_local i32 @main() #0 {
  %1 = alloca i32, align 4
  %2 = alloca [100000 x i8], align 16
  %3 = alloca i8*, align 8
  %4 = alloca [300 x i32], align 16
  %5 = alloca i32*, align 8
  %6 = alloca i32, align 4
  %7 = alloca i32, align 4
  %8 = alloca i32, align 4
  %9 = alloca i32, align 4
  store i32 0, i32* %1, align 4
  %10 = getelementptr inbounds [100000 x i8], [100000 x i8]* %2, i64 0, i64 0
  store i8* %10, i8** %3, align 8
  %11 = load i8*, i8** %3, align 8
  %12 = call i32 (i8*, ...) bitcast (i32 (...)* @gets to i32 (i8*, ...)*)(i8* %11)
  %13 = bitcast [300 x i32]* %4 to i8*
  call void @llvm.memset.p0i8.i64(i8* align 16 %13, i8 0, i64 1200, i1 false)
  store i32 0, i32* %7, align 4
  store i32 0, i32* %8, align 4
  store i32 0, i32* %9, align 4
  %14 = getelementptr inbounds [300 x i32], [300 x i32]* %4, i64 0, i64 0
  store i32* %14, i32** %5, align 8
  store i32 0, i32* %6, align 4
  br label %15

15:                                               ; preds = %59, %0
  %16 = load i8*, i8** %3, align 8
  %17 = load i32, i32* %6, align 4
  %18 = sext i32 %17 to i64
  %19 = getelementptr inbounds i8, i8* %16, i64 %18
  %20 = load i8, i8* %19, align 1
  %21 = sext i8 %20 to i32
  %22 = icmp ne i32 %21, 0
  br i1 %22, label %23, label %62

23:                                               ; preds = %15
  %24 = load i8*, i8** %3, align 8
  %25 = load i32, i32* %6, align 4
  %26 = sext i32 %25 to i64
  %27 = getelementptr inbounds i8, i8* %24, i64 %26
  %28 = load i8, i8* %27, align 1
  %29 = sext i8 %28 to i32
  %30 = icmp ne i32 %29, 32
  br i1 %30, label %31, label %42

31:                                               ; preds = %23
  %32 = load i32*, i32** %5, align 8
  %33 = load i32, i32* %8, align 4
  %34 = sext i32 %33 to i64
  %35 = getelementptr inbounds i32, i32* %32, i64 %34
  %36 = load i32, i32* %35, align 4
  %37 = add nsw i32 %36, 1
  %38 = load i32*, i32** %5, align 8
  %39 = load i32, i32* %8, align 4
  %40 = sext i32 %39 to i64
  %41 = getelementptr inbounds i32, i32* %38, i64 %40
  store i32 %37, i32* %41, align 4
  store i32 1, i32* %7, align 4
  br label %58

42:                                               ; preds = %23
  %43 = load i8*, i8** %3, align 8
  %44 = load i32, i32* %6, align 4
  %45 = sext i32 %44 to i64
  %46 = getelementptr inbounds i8, i8* %43, i64 %45
  %47 = load i8, i8* %46, align 1
  %48 = sext i8 %47 to i32
  %49 = icmp eq i32 %48, 32
  br i1 %49, label %50, label %57

50:                                               ; preds = %42
  %51 = load i32, i32* %7, align 4
  %52 = icmp eq i32 %51, 1
  br i1 %52, label %53, label %57

53:                                               ; preds = %50
  %54 = load i32, i32* %8, align 4
  %55 = add nsw i32 %54, 1
  store i32 %55, i32* %8, align 4
  store i32 0, i32* %7, align 4
  %56 = load i32, i32* %8, align 4
  store i32 %56, i32* %9, align 4
  br label %57

57:                                               ; preds = %53, %50, %42
  br label %58

58:                                               ; preds = %57, %31
  br label %59

59:                                               ; preds = %58
  %60 = load i32, i32* %6, align 4
  %61 = add nsw i32 %60, 1
  store i32 %61, i32* %6, align 4
  br label %15

62:                                               ; preds = %15
  %63 = load i32, i32* %9, align 4
  %64 = icmp eq i32 %63, 0
  br i1 %64, label %65, label %69

65:                                               ; preds = %62
  %66 = load i32*, i32** %5, align 8
  %67 = load i32, i32* %66, align 4
  %68 = call i32 (i8*, ...) @printf(i8* getelementptr inbounds ([3 x i8], [3 x i8]* @.str, i64 0, i64 0), i32 %67)
  br label %91

69:                                               ; preds = %62
  store i32 0, i32* %6, align 4
  br label %70

70:                                               ; preds = %81, %69
  %71 = load i32, i32* %6, align 4
  %72 = load i32, i32* %9, align 4
  %73 = icmp slt i32 %71, %72
  br i1 %73, label %74, label %84

74:                                               ; preds = %70
  %75 = load i32*, i32** %5, align 8
  %76 = load i32, i32* %6, align 4
  %77 = sext i32 %76 to i64
  %78 = getelementptr inbounds i32, i32* %75, i64 %77
  %79 = load i32, i32* %78, align 4
  %80 = call i32 (i8*, ...) @printf(i8* getelementptr inbounds ([4 x i8], [4 x i8]* @.str.1, i64 0, i64 0), i32 %79)
  br label %81

81:                                               ; preds = %74
  %82 = load i32, i32* %6, align 4
  %83 = add nsw i32 %82, 1
  store i32 %83, i32* %6, align 4
  br label %70

84:                                               ; preds = %70
  %85 = load i32*, i32** %5, align 8
  %86 = load i32, i32* %9, align 4
  %87 = sext i32 %86 to i64
  %88 = getelementptr inbounds i32, i32* %85, i64 %87
  %89 = load i32, i32* %88, align 4
  %90 = call i32 (i8*, ...) @printf(i8* getelementptr inbounds ([3 x i8], [3 x i8]* @.str, i64 0, i64 0), i32 %89)
  br label %91

91:                                               ; preds = %84, %65
  ret i32 0
}

declare dso_local i32 @gets(...) #1

; Function Attrs: argmemonly nounwind willreturn
declare void @llvm.memset.p0i8.i64(i8* nocapture writeonly, i8, i64, i1 immarg) #2

declare dso_local i32 @printf(i8*, ...) #1


!llvm.module.flags = !{!0}
!llvm.ident = !{!1}

!0 = !{i32 1, !"wchar_size", i32 4}
!1 = !{!"clang version 10.0.0-4ubuntu1 "}
